target datalayout = "e-m:e-p270:32:32-p271:32:32-p272:64:64-i64:64-i128:128-f80:128-n8:16:32:64-S128"
target triple = "x86_64-pc-linux-gnu"

%"class.std::vector" = type { %"struct.std::_Vector_base" }
%"struct.std::_Vector_base" = type { %"struct.std::_Vector_base<int, std::allocator<int>>::_Vector_impl" }
%"struct.std::_Vector_base<int, std::allocator<int>>::_Vector_impl" = type { %"struct.std::_Vector_base<int, std::allocator<int>>::_Vector_impl_data" }
%"struct.std::_Vector_base<int, std::allocator<int>>::_Vector_impl_data" = type { ptr, ptr, ptr }
%"class.std::vector.3" = type { %"struct.std::_Vector_base.4" }
%"struct.std::_Vector_base.4" = type { %"struct.std::_Vector_base<double, std::allocator<double>>::_Vector_impl" }
%"struct.std::_Vector_base<double, std::allocator<double>>::_Vector_impl" = type { %"struct.std::_Vector_base<double, std::allocator<double>>::_Vector_impl_data" }
%"struct.std::_Vector_base<double, std::allocator<double>>::_Vector_impl_data" = type { ptr, ptr, ptr }
%"struct.std::_Vector_base.26" = type { %"struct.std::_Vector_base<cv::Mat, std::allocator<cv::Mat>>::_Vector_impl" }
%"struct.std::_Vector_base<cv::Mat, std::allocator<cv::Mat>>::_Vector_impl" = type { %"struct.std::_Vector_base<cv::Mat, std::allocator<cv::Mat>>::_Vector_impl_data" }
%"struct.std::_Vector_base<cv::Mat, std::allocator<cv::Mat>>::_Vector_impl_data" = type { ptr, ptr, ptr }
%"class.cv::Mat" = type { i32, i32, i32, i32, ptr, ptr, ptr, ptr, ptr, ptr, %"struct.cv::MatSize", %"struct.cv::MatStep" }
%"struct.cv::MatSize" = type { ptr }
%"struct.cv::MatStep" = type { ptr, [2 x i64] }
%"class.cv::Mat_" = type { %"class.cv::Mat" }
%"class.cv::face::FacemarkLBFImpl::RandomTree" = type { i32, i32, i32, %"class.cv::Mat_", %"class.std::vector", %"class.std::vector", %"class.std::vector.3" }

; Function Attrs: inlinehint mustprogress nounwind uwtable
define linkonce_odr hidden noundef nonnull align 8 dereferenceable(8) ptr @_ZN2cv4Mat_IdEclEii(ptr noundef nonnull align 8 dereferenceable(96) %0, i32 noundef %1, i32 noundef %2) #6 comdat align 2 {
  %4 = alloca ptr, align 8
  %5 = alloca i32, align 4
  %6 = alloca i32, align 4
  store ptr %0, ptr %4, align 8, !tbaa !260
  store i32 %1, ptr %5, align 4, !tbaa !37
  store i32 %2, ptr %6, align 4, !tbaa !37
  %7 = load ptr, ptr %4, align 8
  %8 = getelementptr inbounds nuw %"class.cv::Mat", ptr %7, i32 0, i32 4
  %9 = load ptr, ptr %8, align 8, !tbaa !167
  %10 = getelementptr inbounds nuw %"class.cv::Mat", ptr %7, i32 0, i32 11
  %11 = getelementptr inbounds nuw %"struct.cv::MatStep", ptr %10, i32 0, i32 0
  %12 = load ptr, ptr %11, align 8, !tbaa !264
  %13 = getelementptr inbounds i64, ptr %12, i64 0
  %14 = load i64, ptr %13, align 8, !tbaa !65
  %15 = load i32, ptr %5, align 4, !tbaa !37
  %16 = sext i32 %15 to i64
  %17 = mul i64 %14, %16
  %18 = getelementptr inbounds nuw i8, ptr %9, i64 %17
  %19 = load i32, ptr %6, align 4, !tbaa !37
  %20 = sext i32 %19 to i64
  %21 = getelementptr inbounds double, ptr %18, i64 %20
  ret ptr %21
}

; Function Attrs: inlinehint mustprogress nounwind uwtable
define linkonce_odr hidden noundef nonnull align 8 dereferenceable(8) ptr @_ZN2cv3Mat2atIdEERT_ii(ptr noundef nonnull align 8 dereferenceable(96) %0, i32 noundef %1, i32 noundef %2) #6 comdat align 2 {
  %4 = alloca ptr, align 8
  %5 = alloca i32, align 4
  %6 = alloca i32, align 4
  store ptr %0, ptr %4, align 8, !tbaa !159
  store i32 %1, ptr %5, align 4, !tbaa !37
  store i32 %2, ptr %6, align 4, !tbaa !37
  %7 = load ptr, ptr %4, align 8
  %8 = getelementptr inbounds nuw %"class.cv::Mat", ptr %7, i32 0, i32 4
  %9 = load ptr, ptr %8, align 8, !tbaa !167
  %10 = getelementptr inbounds nuw %"class.cv::Mat", ptr %7, i32 0, i32 11
  %11 = getelementptr inbounds nuw %"struct.cv::MatStep", ptr %10, i32 0, i32 0
  %12 = load ptr, ptr %11, align 8, !tbaa !264
  %13 = getelementptr inbounds i64, ptr %12, i64 0
  %14 = load i64, ptr %13, align 8, !tbaa !65
  %15 = load i32, ptr %5, align 4, !tbaa !37
  %16 = sext i32 %15 to i64
  %17 = mul i64 %14, %16
  %18 = getelementptr inbounds nuw i8, ptr %9, i64 %17
  %19 = load i32, ptr %6, align 4, !tbaa !37
  %20 = sext i32 %19 to i64
  %21 = getelementptr inbounds double, ptr %18, i64 %20
  ret ptr %21
}

; Function Attrs: mustprogress nounwind uwtable
define linkonce_odr hidden noundef nonnull align 8 dereferenceable(96) ptr @_ZNSt6vectorIN2cv3MatESaIS1_EEixEm(ptr noundef nonnull align 8 dereferenceable(24) %0, i64 noundef %1) #5 comdat align 2 {
  %3 = alloca ptr, align 8
  %4 = alloca i64, align 8
  store ptr %0, ptr %3, align 8, !tbaa !139
  store i64 %1, ptr %4, align 8, !tbaa !65
  %5 = load ptr, ptr %3, align 8
  %6 = getelementptr inbounds nuw %"struct.std::_Vector_base.26", ptr %5, i32 0, i32 0
  %7 = getelementptr inbounds nuw %"struct.std::_Vector_base<cv::Mat, std::allocator<cv::Mat>>::_Vector_impl_data", ptr %6, i32 0, i32 0
  %8 = load ptr, ptr %7, align 8, !tbaa !146
  %9 = load i64, ptr %4, align 8, !tbaa !65
  %10 = getelementptr inbounds nuw %"class.cv::Mat", ptr %8, i64 %9
  ret ptr %10
}

; Function Attrs: inlinehint mustprogress uwtable
define linkonce_odr hidden void @_ZN2cv4Mat_IdEC2Eii(ptr noundef nonnull align 8 dereferenceable(96) %0, i32 noundef %1, i32 noundef %2) unnamed_addr #9 comdat align 2 {
  %4 = alloca ptr, align 8
  %5 = alloca i32, align 4
  %6 = alloca i32, align 4
  store ptr %0, ptr %4, align 8, !tbaa !260
  store i32 %1, ptr %5, align 4, !tbaa !37
  store i32 %2, ptr %6, align 4, !tbaa !37
  %7 = load ptr, ptr %4, align 8
  %8 = load i32, ptr %5, align 4, !tbaa !37
  %9 = load i32, ptr %6, align 4, !tbaa !37
  call void @_ZN2cv3MatC2Eiii(ptr noundef nonnull align 8 dereferenceable(96) %7, i32 noundef %8, i32 noundef %9, i32 noundef 6)
  ret void
}

; Function Attrs: mustprogress nounwind uwtable
define linkonce_odr hidden noundef i64 @_ZNKSt6vectorIN2cv3MatESaIS1_EE4sizeEv(ptr noundef nonnull align 8 dereferenceable(24) %0) #5 comdat align 2 {
  %2 = alloca ptr, align 8
  store ptr %0, ptr %2, align 8, !tbaa !139
  %3 = load ptr, ptr %2, align 8
  %4 = getelementptr inbounds nuw %"struct.std::_Vector_base.26", ptr %3, i32 0, i32 0
  %5 = getelementptr inbounds nuw %"struct.std::_Vector_base<cv::Mat, std::allocator<cv::Mat>>::_Vector_impl_data", ptr %4, i32 0, i32 1
  %6 = load ptr, ptr %5, align 8, !tbaa !147
  %7 = getelementptr inbounds nuw %"struct.std::_Vector_base.26", ptr %3, i32 0, i32 0
  %8 = getelementptr inbounds nuw %"struct.std::_Vector_base<cv::Mat, std::allocator<cv::Mat>>::_Vector_impl_data", ptr %7, i32 0, i32 0
  %9 = load ptr, ptr %8, align 8, !tbaa !146
  %10 = ptrtoint ptr %6 to i64
  %11 = ptrtoint ptr %9 to i64
  %12 = sub i64 %10, %11
  %13 = sdiv exact i64 %12, 96
  ret i64 %13
}

; Function Attrs: mustprogress uwtable
define hidden void @_ZN2cv4face15FacemarkLBFImpl10RandomTree5trainERSt6vectorINS_3MatESaIS4_EES7_RS3_INS0_11FacemarkLBF4BBoxESaIS9_EES7_RS4_RS3_IiSaIiEEi(ptr noundef nonnull align 8 dereferenceable(184) %0, ptr noundef nonnull align 8 dereferenceable(24) %1, ptr noundef nonnull align 8 dereferenceable(24) %2, ptr noundef nonnull align 8 dereferenceable(24) %3, ptr noundef nonnull align 8 dereferenceable(24) %4, ptr noundef nonnull align 8 dereferenceable(96) %5, ptr noundef nonnull align 8 dereferenceable(24) %6, i32 noundef %7) #4 align 2 personality ptr @__gxx_personality_v0 {
  %9 = alloca ptr, align 8
  %10 = alloca ptr, align 8
  %11 = alloca ptr, align 8
  %12 = alloca ptr, align 8
  %13 = alloca ptr, align 8
  %14 = alloca ptr, align 8
  %15 = alloca ptr, align 8
  %16 = alloca i32, align 4
  %17 = alloca %"class.cv::Mat_", align 8
  %18 = alloca i32, align 4
  %19 = alloca ptr, align 8
  %20 = alloca i32, align 4
  store ptr %0, ptr %9, align 8, !tbaa !281
  store ptr %1, ptr %10, align 8, !tbaa !139
  store ptr %2, ptr %11, align 8, !tbaa !139
  store ptr %3, ptr %12, align 8, !tbaa !141
  store ptr %4, ptr %13, align 8, !tbaa !139
  store ptr %5, ptr %14, align 8, !tbaa !159
  store ptr %6, ptr %15, align 8, !tbaa !44
  store i32 %7, ptr %16, align 4, !tbaa !37
  %21 = load ptr, ptr %9, align 8
  call void @llvm.lifetime.start.p0(i64 96, ptr %17) #3
  %22 = load ptr, ptr %13, align 8, !tbaa !139
  %23 = call noundef i64 @_ZNKSt6vectorIN2cv3MatESaIS1_EE4sizeEv(ptr noundef nonnull align 8 dereferenceable(24) %22) #3
  %24 = trunc i64 %23 to i32
  call void @_ZN2cv4Mat_IdEC2Eii(ptr noundef nonnull align 8 dereferenceable(96) %17, i32 noundef %24, i32 noundef 2)
  call void @llvm.lifetime.start.p0(i64 4, ptr %18) #3
  store i32 0, ptr %18, align 4, !tbaa !37
  br label %25

25:                                               ; preds = %57, %8
  %26 = load i32, ptr %18, align 4, !tbaa !37
  %27 = load ptr, ptr %13, align 8, !tbaa !139
  %28 = call noundef i64 @_ZNKSt6vectorIN2cv3MatESaIS1_EE4sizeEv(ptr noundef nonnull align 8 dereferenceable(24) %27) #3
  %29 = trunc i64 %28 to i32
  %30 = icmp slt i32 %26, %29
  br i1 %30, label %32, label %31

31:                                               ; preds = %25
  call void @llvm.lifetime.end.p0(i64 4, ptr %18) #3
  br label %64

32:                                               ; preds = %25
  %33 = load ptr, ptr %13, align 8, !tbaa !139
  %34 = load i32, ptr %18, align 4, !tbaa !37
  %35 = sext i32 %34 to i64
  %36 = call noundef nonnull align 8 dereferenceable(96) ptr @_ZNSt6vectorIN2cv3MatESaIS1_EEixEm(ptr noundef nonnull align 8 dereferenceable(24) %33, i64 noundef %35) #3
  %37 = getelementptr inbounds nuw %"class.cv::face::FacemarkLBFImpl::RandomTree", ptr %21, i32 0, i32 2
  %38 = load i32, ptr %37, align 8, !tbaa !283
  %39 = invoke noundef nonnull align 8 dereferenceable(8) ptr @_ZN2cv3Mat2atIdEERT_ii(ptr noundef nonnull align 8 dereferenceable(96) %36, i32 noundef %38, i32 noundef 0)
          to label %40 unwind label %60

40:                                               ; preds = %32
  %41 = load double, ptr %39, align 8, !tbaa !191
  %42 = load i32, ptr %18, align 4, !tbaa !37
  %43 = invoke noundef nonnull align 8 dereferenceable(8) ptr @_ZN2cv4Mat_IdEclEii(ptr noundef nonnull align 8 dereferenceable(96) %17, i32 noundef %42, i32 noundef 0)
          to label %44 unwind label %60

44:                                               ; preds = %40
  store double %41, ptr %43, align 8, !tbaa !191
  %45 = load ptr, ptr %13, align 8, !tbaa !139
  %46 = load i32, ptr %18, align 4, !tbaa !37
  %47 = sext i32 %46 to i64
  %48 = call noundef nonnull align 8 dereferenceable(96) ptr @_ZNSt6vectorIN2cv3MatESaIS1_EEixEm(ptr noundef nonnull align 8 dereferenceable(24) %45, i64 noundef %47) #3
  %49 = getelementptr inbounds nuw %"class.cv::face::FacemarkLBFImpl::RandomTree", ptr %21, i32 0, i32 2
  %50 = load i32, ptr %49, align 8, !tbaa !283
  %51 = invoke noundef nonnull align 8 dereferenceable(8) ptr @_ZN2cv3Mat2atIdEERT_ii(ptr noundef nonnull align 8 dereferenceable(96) %48, i32 noundef %50, i32 noundef 1)
          to label %52 unwind label %60

52:                                               ; preds = %44
  %53 = load double, ptr %51, align 8, !tbaa !191
  %54 = load i32, ptr %18, align 4, !tbaa !37
  %55 = invoke noundef nonnull align 8 dereferenceable(8) ptr @_ZN2cv4Mat_IdEclEii(ptr noundef nonnull align 8 dereferenceable(96) %17, i32 noundef %54, i32 noundef 1)
          to label %56 unwind label %60

56:                                               ; preds = %52
  store double %53, ptr %55, align 8, !tbaa !191
  br label %57

57:                                               ; preds = %56
  %58 = load i32, ptr %18, align 4, !tbaa !37
  %59 = add nsw i32 %58, 1
  store i32 %59, ptr %18, align 4, !tbaa !37
  br label %25, !llvm.loop !288

60:                                               ; preds = %52, %44, %40, %32
  %61 = landingpad { ptr, i32 }
          cleanup
  %62 = extractvalue { ptr, i32 } %61, 0
  store ptr %62, ptr %19, align 8
  %63 = extractvalue { ptr, i32 } %61, 1
  store i32 %63, ptr %20, align 4
  call void @llvm.lifetime.end.p0(i64 4, ptr %18) #3
  br label %76

64:                                               ; preds = %31
  %65 = load ptr, ptr %10, align 8, !tbaa !139
  %66 = load ptr, ptr %11, align 8, !tbaa !139
  %67 = load ptr, ptr %12, align 8, !tbaa !141
  %68 = load ptr, ptr %14, align 8, !tbaa !159
  %69 = load ptr, ptr %15, align 8, !tbaa !44
  %70 = load i32, ptr %16, align 4, !tbaa !37
  invoke void @_ZN2cv4face15FacemarkLBFImpl10RandomTree9splitNodeERSt6vectorINS_3MatESaIS4_EES7_RS3_INS0_11FacemarkLBF4BBoxESaIS9_EERS4_SD_RS3_IiSaIiEEii(ptr noundef nonnull align 8 dereferenceable(184) %21, ptr noundef nonnull align 8 dereferenceable(24) %65, ptr noundef nonnull align 8 dereferenceable(24) %66, ptr noundef nonnull align 8 dereferenceable(24) %67, ptr noundef nonnull align 8 dereferenceable(96) %17, ptr noundef nonnull align 8 dereferenceable(96) %68, ptr noundef nonnull align 8 dereferenceable(24) %69, i32 noundef 1, i32 noundef %70)
          to label %71 unwind label %72

71:                                               ; preds = %64
  call void @_ZN2cv3MatD2Ev(ptr noundef nonnull align 8 dereferenceable(96) %17) #3
  call void @llvm.lifetime.end.p0(i64 96, ptr %17) #3
  ret void

72:                                               ; preds = %64
  %73 = landingpad { ptr, i32 }
          cleanup
  %74 = extractvalue { ptr, i32 } %73, 0
  store ptr %74, ptr %19, align 8
  %75 = extractvalue { ptr, i32 } %73, 1
  store i32 %75, ptr %20, align 4
  br label %76

76:                                               ; preds = %72, %60
  call void @_ZN2cv3MatD2Ev(ptr noundef nonnull align 8 dereferenceable(96) %17) #3
  call void @llvm.lifetime.end.p0(i64 96, ptr %17) #3
  br label %77

77:                                               ; preds = %76
  %78 = load ptr, ptr %19, align 8
  %79 = load i32, ptr %20, align 4
  %80 = insertvalue { ptr, i32 } poison, ptr %78, 0
  %81 = insertvalue { ptr, i32 } %80, i32 %79, 1
  resume { ptr, i32 } %81
}