; Function Attrs: mustprogress uwtable
define hidden void @_ZN2cv4face15FacemarkLBFImpl10RandomTree5trainERSt6vectorINS_3MatESaIS4_EES7_RS3_INS0_11FacemarkLBF4BBoxESaIS9_EES7_RS4_RS3_IiSaIiEEi(ptr noundef nonnull align 8 dereferenceable(184) %0, ptr noundef nonnull align 8 dereferenceable(24) %1, ptr noundef nonnull align 8 dereferenceable(24) %2, ptr noundef nonnull align 8 dereferenceable(24) %3, ptr noundef nonnull readonly align 8 captures(none) dereferenceable(24) %4, ptr noundef nonnull align 8 dereferenceable(96) %5, ptr noundef nonnull readonly align 8 captures(none) dereferenceable(24) %6, i32 noundef %7) local_unnamed_addr #3 align 2 personality ptr @__gxx_personality_v0 {
  %9 = alloca %"class.cv::Mat_", align 8
  call void @llvm.lifetime.start.p0(i64 96, ptr nonnull %9) #31
  %10 = getelementptr inbounds nuw i8, ptr %4, i64 8
  %11 = load ptr, ptr %10, align 8, !tbaa !118
  %12 = load ptr, ptr %4, align 8, !tbaa !117
  %13 = ptrtoint ptr %11 to i64
  %14 = ptrtoint ptr %12 to i64
  %15 = sub i64 %13, %14
  %16 = sdiv exact i64 %15, 96
  %17 = trunc i64 %16 to i32
  call void @_ZN2cv3MatC2Eiii(ptr noundef nonnull align 8 dereferenceable(96) %9, i32 noundef %17, i32 noundef 2, i32 noundef 6)
  %18 = load ptr, ptr %10, align 8, !tbaa !118
  %19 = load ptr, ptr %4, align 8, !tbaa !117
  %20 = ptrtoint ptr %18 to i64
  %21 = ptrtoint ptr %19 to i64
  %22 = sub i64 %20, %21
  %23 = sdiv exact i64 %22, 96
  %24 = trunc i64 %23 to i32
  %25 = icmp sgt i32 %24, 0
  br i1 %25, label %.lr.ph, label %._crit_edge

.lr.ph:                                           ; preds = %8
  %26 = getelementptr inbounds nuw i8, ptr %0, i64 8
  %27 = load i32, ptr %26, align 8, !tbaa !429
  %28 = sext i32 %27 to i64
  %29 = getelementptr inbounds nuw i8, ptr %9, i64 16
  %30 = load ptr, ptr %29, align 8, !tbaa !151
  %31 = getelementptr inbounds nuw i8, ptr %9, i64 72
  %32 = load ptr, ptr %31, align 8, !tbaa !216
  %33 = load i64, ptr %32, align 8, !tbaa !150
  %wide.trip.count = and i64 %23, 2147483647
  br label %34

._crit_edge:                                      ; preds = %34, %8
  invoke void @_ZN2cv4face15FacemarkLBFImpl10RandomTree9splitNodeERSt6vectorINS_3MatESaIS4_EES7_RS3_INS0_11FacemarkLBF4BBoxESaIS9_EERS4_SD_RS3_IiSaIiEEii(ptr noundef nonnull align 8 dereferenceable(184) %0, ptr noundef nonnull align 8 dereferenceable(24) %1, ptr noundef nonnull align 8 dereferenceable(24) %2, ptr noundef nonnull align 8 dereferenceable(24) %3, ptr noundef nonnull align 8 dereferenceable(96) %9, ptr noundef nonnull align 8 dereferenceable(96) %5, ptr noundef nonnull align 8 dereferenceable(24) %6, i32 noundef 1, i32 noundef %7)
          to label %49 unwind label %50

34:                                               ; preds = %.lr.ph, %34
  %indvars.iv = phi i64 [ 0, %.lr.ph ], [ %indvars.iv.next, %34 ]
  %35 = getelementptr inbounds nuw %"class.cv::Mat", ptr %19, i64 %indvars.iv
  %36 = getelementptr inbounds nuw i8, ptr %35, i64 16
  %37 = load ptr, ptr %36, align 8, !tbaa !151
  %38 = getelementptr inbounds nuw i8, ptr %35, i64 72
  %39 = load ptr, ptr %38, align 8, !tbaa !216
  %40 = load i64, ptr %39, align 8, !tbaa !150
  %41 = mul i64 %40, %28
  %42 = getelementptr inbounds nuw i8, ptr %37, i64 %41
  %43 = load double, ptr %42, align 8, !tbaa !46
  %44 = mul i64 %33, %indvars.iv
  %45 = getelementptr inbounds nuw i8, ptr %30, i64 %44
  store double %43, ptr %45, align 8, !tbaa !46
  %46 = getelementptr inbounds nuw i8, ptr %42, i64 8
  %47 = load double, ptr %46, align 8, !tbaa !46
  %48 = getelementptr inbounds nuw i8, ptr %45, i64 8
  store double %47, ptr %48, align 8, !tbaa !46
  %indvars.iv.next = add nuw nsw i64 %indvars.iv, 1
  %exitcond.not = icmp eq i64 %indvars.iv.next, %wide.trip.count
  br i1 %exitcond.not, label %._crit_edge, label %34, !llvm.loop !434

49:                                               ; preds = %._crit_edge
  call void @_ZN2cv3MatD2Ev(ptr noundef nonnull align 8 dereferenceable(96) %9) #31
  call void @llvm.lifetime.end.p0(i64 96, ptr nonnull %9) #31
  ret void

50:                                               ; preds = %._crit_edge
  %51 = landingpad { ptr, i32 }
          cleanup
  call void @_ZN2cv3MatD2Ev(ptr noundef nonnull align 8 dereferenceable(96) %9) #31
  call void @llvm.lifetime.end.p0(i64 96, ptr nonnull %9) #31
  resume { ptr, i32 } %51
}